target datalayout = "e-m:e-p270:32:32-p271:32:32-p272:64:64-i64:64-i128:128-f80:128-n8:16:32:64-S128"
target triple = "x86_64-pc-linux-gnu"

%struct.termiosmodulestate = type { ptr }

@PyExc_TypeError = external global ptr, align 8
@.str.14 = private unnamed_addr constant [42 x i8] c"tcsendbreak expected 2 arguments, got %zd\00", align 1

; Function Attrs: nounwind uwtable
define internal ptr @termios_tcsendbreak_impl(ptr noundef %0, i32 noundef %1, i32 noundef %2) #0 {
  %4 = alloca ptr, align 8
  %5 = alloca ptr, align 8
  %6 = alloca i32, align 4
  %7 = alloca i32, align 4
  %8 = alloca ptr, align 8
  %9 = alloca i32, align 4
  %10 = alloca ptr, align 8
  %11 = alloca i32, align 4
  store ptr %0, ptr %5, align 8, !tbaa !3
  store i32 %1, ptr %6, align 4, !tbaa !11
  store i32 %2, ptr %7, align 4, !tbaa !11
  call void @llvm.lifetime.start.p0(i64 8, ptr %8) #7
  %12 = load ptr, ptr %5, align 8, !tbaa !3
  %13 = call ptr @PyModule_GetState(ptr noundef %12)
  store ptr %13, ptr %8, align 8, !tbaa !8
  call void @llvm.lifetime.start.p0(i64 4, ptr %9) #7
  call void @llvm.lifetime.start.p0(i64 8, ptr %10) #7
  %14 = call ptr @PyEval_SaveThread()
  store ptr %14, ptr %10, align 8, !tbaa !17
  %15 = load i32, ptr %6, align 4, !tbaa !11
  %16 = load i32, ptr %7, align 4, !tbaa !11
  %17 = call i32 @tcsendbreak(i32 noundef %15, i32 noundef %16) #7
  store i32 %17, ptr %9, align 4, !tbaa !11
  %18 = load ptr, ptr %10, align 8, !tbaa !17
  call void @PyEval_RestoreThread(ptr noundef %18)
  call void @llvm.lifetime.end.p0(i64 8, ptr %10) #7
  %19 = load i32, ptr %9, align 4, !tbaa !11
  %20 = icmp eq i32 %19, -1
  br i1 %20, label %21, label %26

21:                                               ; preds = %3
  %22 = load ptr, ptr %8, align 8, !tbaa !8
  %23 = getelementptr inbounds nuw %struct.termiosmodulestate, ptr %22, i32 0, i32 0
  %24 = load ptr, ptr %23, align 8, !tbaa !9
  %25 = call ptr @PyErr_SetFromErrno(ptr noundef %24)
  store ptr %25, ptr %4, align 8
  store i32 1, ptr %11, align 4
  br label %28

26:                                               ; preds = %3
  %27 = call ptr @Py_GetConstantBorrowed(i32 noundef 0)
  store ptr %27, ptr %4, align 8
  store i32 1, ptr %11, align 4
  br label %28

28:                                               ; preds = %26, %21
  call void @llvm.lifetime.end.p0(i64 4, ptr %9) #7
  call void @llvm.lifetime.end.p0(i64 8, ptr %8) #7
  %29 = load ptr, ptr %4, align 8
  ret ptr %29
}

; Function Attrs: nounwind uwtable
define internal ptr @termios_tcsendbreak(ptr noundef %0, ptr noundef %1, i64 noundef %2) #0 {
  %4 = alloca ptr, align 8
  %5 = alloca ptr, align 8
  %6 = alloca i64, align 8
  %7 = alloca ptr, align 8
  %8 = alloca i32, align 4
  %9 = alloca i32, align 4
  store ptr %0, ptr %4, align 8, !tbaa !3
  store ptr %1, ptr %5, align 8, !tbaa !13
  store i64 %2, ptr %6, align 8, !tbaa !15
  call void @llvm.lifetime.start.p0(i64 8, ptr %7) #7
  store ptr null, ptr %7, align 8, !tbaa !3
  call void @llvm.lifetime.start.p0(i64 4, ptr %8) #7
  call void @llvm.lifetime.start.p0(i64 4, ptr %9) #7
  %10 = load i64, ptr %6, align 8, !tbaa !15
  %11 = icmp ne i64 %10, 2
  br i1 %11, label %12, label %16

12:                                               ; preds = %3
  %13 = load ptr, ptr @PyExc_TypeError, align 8, !tbaa !3
  %14 = load i64, ptr %6, align 8, !tbaa !15
  %15 = call ptr (ptr, ptr, ...) @PyErr_Format(ptr noundef %13, ptr noundef @.str.14, i64 noundef %14)
  br label %40

16:                                               ; preds = %3
  %17 = load ptr, ptr %5, align 8, !tbaa !13
  %18 = getelementptr ptr, ptr %17, i64 0
  %19 = load ptr, ptr %18, align 8, !tbaa !3
  %20 = call i32 @PyObject_AsFileDescriptor(ptr noundef %19)
  store i32 %20, ptr %8, align 4, !tbaa !11
  %21 = load i32, ptr %8, align 4, !tbaa !11
  %22 = icmp slt i32 %21, 0
  br i1 %22, label %23, label %24

23:                                               ; preds = %16
  br label %40

24:                                               ; preds = %16
  %25 = load ptr, ptr %5, align 8, !tbaa !13
  %26 = getelementptr ptr, ptr %25, i64 1
  %27 = load ptr, ptr %26, align 8, !tbaa !3
  %28 = call i32 @PyLong_AsInt(ptr noundef %27)
  store i32 %28, ptr %9, align 4, !tbaa !11
  %29 = load i32, ptr %9, align 4, !tbaa !11
  %30 = icmp eq i32 %29, -1
  br i1 %30, label %31, label %35

31:                                               ; preds = %24
  %32 = call ptr @PyErr_Occurred()
  %33 = icmp ne ptr %32, null
  br i1 %33, label %34, label %35

34:                                               ; preds = %31
  br label %40

35:                                               ; preds = %31, %24
  %36 = load ptr, ptr %4, align 8, !tbaa !3
  %37 = load i32, ptr %8, align 4, !tbaa !11
  %38 = load i32, ptr %9, align 4, !tbaa !11
  %39 = call ptr @termios_tcsendbreak_impl(ptr noundef %36, i32 noundef %37, i32 noundef %38)
  store ptr %39, ptr %7, align 8, !tbaa !3
  br label %40

40:                                               ; preds = %35, %34, %23, %12
  %41 = load ptr, ptr %7, align 8, !tbaa !3
  call void @llvm.lifetime.end.p0(i64 4, ptr %9) #7
  call void @llvm.lifetime.end.p0(i64 4, ptr %8) #7
  call void @llvm.lifetime.end.p0(i64 8, ptr %7) #7
  ret ptr %41
}